target datalayout = "e-m:e-p270:32:32-p271:32:32-p272:64:64-i64:64-i128:128-f80:128-n8:16:32:64-S128"
target triple = "x86_64-pc-linux-gnu"

%struct.r_test_ctx = type { ptr }

@r_test_table = internal constant [3 x { i32, [4 x i8], ptr }] [{ i32, [4 x i8], ptr } { i32 1032, [4 x i8] zeroinitializer, ptr @r_random_bytes }, { i32, [4 x i8], ptr } { i32 1024, [4 x i8] zeroinitializer, ptr @r_teardown }, { i32, [4 x i8], ptr } zeroinitializer], align 16

; Function Attrs: nounwind uwtable
define internal i32 @r_init(ptr noundef %0, ptr noundef %1, ptr noundef %2, ptr noundef %3) #0 {
  %5 = alloca i32, align 4
  %6 = alloca ptr, align 8
  %7 = alloca ptr, align 8
  %8 = alloca ptr, align 8
  %9 = alloca ptr, align 8
  %10 = alloca ptr, align 8
  %11 = alloca i32, align 4
  store ptr %0, ptr %6, align 8, !tbaa !33
  store ptr %1, ptr %7, align 8, !tbaa !35
  store ptr %2, ptr %8, align 8, !tbaa !37
  store ptr %3, ptr %9, align 8, !tbaa !14
  call void @llvm.lifetime.start.p0(i64 8, ptr %10) #8
  %12 = call noalias ptr @malloc(i64 noundef 8) #10
  store ptr %12, ptr %10, align 8, !tbaa !39
  %13 = load ptr, ptr %10, align 8, !tbaa !39
  %14 = icmp eq ptr %13, null
  br i1 %14, label %15, label %16

15:                                               ; preds = %4
  store i32 0, ptr %5, align 4
  store i32 1, ptr %11, align 4
  br label %23

16:                                               ; preds = %4
  %17 = load ptr, ptr %6, align 8, !tbaa !33
  %18 = load ptr, ptr %10, align 8, !tbaa !39
  %19 = getelementptr inbounds nuw %struct.r_test_ctx, ptr %18, i32 0, i32 0
  store ptr %17, ptr %19, align 8, !tbaa !41
  %20 = load ptr, ptr %10, align 8, !tbaa !39
  %21 = load ptr, ptr %9, align 8, !tbaa !14
  store ptr %20, ptr %21, align 8, !tbaa !14
  %22 = load ptr, ptr %8, align 8, !tbaa !37
  store ptr @r_test_table, ptr %22, align 8, !tbaa !35
  store i32 1, ptr %5, align 4
  store i32 1, ptr %11, align 4
  br label %23

23:                                               ; preds = %16, %15
  call void @llvm.lifetime.end.p0(i64 8, ptr %10) #8
  %24 = load i32, ptr %5, align 4
  ret i32 %24
}