; Function Attrs: mustprogress nofree nounwind willreturn memory(write, inaccessiblemem: readwrite) uwtable
define internal range(i32 0, 2) i32 @r_init(ptr noundef %0, ptr readnone captures(none) %1, ptr noundef writeonly captures(none) %2, ptr noundef writeonly captures(none) %3) #6 {
  %5 = tail call noalias dereferenceable_or_null(8) ptr @malloc(i64 noundef 8) #13
  %6 = icmp eq ptr %5, null
  br i1 %6, label %8, label %7

7:                                                ; preds = %4
  store ptr %0, ptr %5, align 8, !tbaa !25
  store ptr %5, ptr %3, align 8, !tbaa !12
  store ptr @r_test_table, ptr %2, align 8, !tbaa !28
  br label %8

8:                                                ; preds = %4, %7
  %.0 = phi i32 [ 1, %7 ], [ 0, %4 ]
  ret i32 %.0
}